target datalayout = "e-m:e-p270:32:32-p271:32:32-p272:64:64-i64:64-i128:128-f80:128-n8:16:32:64-S128"
target triple = "x86_64-pc-linux-gnu"

@.str.4 = private unnamed_addr constant [2 x i8] c"\0A\00", align 1
@.str.5 = private unnamed_addr constant [38 x i8] c"    fsm_recode [options] [selection]\0A\00", align 1
@.str.6 = private unnamed_addr constant [74 x i8] c"This pass reassign the state encodings for FSM cells. At the moment only\0A\00", align 1
@.str.7 = private unnamed_addr constant [52 x i8] c"one-hot encoding and binary encoding is supported.\0A\00", align 1
@.str.8 = private unnamed_addr constant [22 x i8] c"    -encoding <type>\0A\00", align 1
@.str.9 = private unnamed_addr constant [63 x i8] c"        specify the encoding scheme used for FSMs without the\0A\00", align 1
@.str.10 = private unnamed_addr constant [71 x i8] c"        'fsm_encoding' attribute or with the attribute set to `auto'.\0A\00", align 1
@.str.11 = private unnamed_addr constant [29 x i8] c"    -fm_set_fsm_file <file>\0A\00", align 1
@.str.12 = private unnamed_addr constant [77 x i8] c"        generate a file containing the mapping from old to new FSM encoding\0A\00", align 1
@.str.13 = private unnamed_addr constant [59 x i8] c"        in form of Synopsys Formality set_fsm_* commands.\0A\00", align 1
@.str.14 = private unnamed_addr constant [21 x i8] c"    -encfile <file>\0A\00", align 1
@.str.15 = private unnamed_addr constant [74 x i8] c"        write the mappings from old to new FSM encoding to a file in the\0A\00", align 1
@.str.16 = private unnamed_addr constant [27 x i8] c"        following format:\0A\00", align 1
@.str.17 = private unnamed_addr constant [47 x i8] c"            .fsm <module_name> <state_signal>\0A\00", align 1
@.str.18 = private unnamed_addr constant [52 x i8] c"            .map <old_bitpattern> <new_bitpattern>\0A\00", align 1

; Function Attrs: mustprogress uwtable
define internal void @_ZN12_GLOBAL__N_113FsmRecodePass4helpEv(ptr noundef nonnull align 8 dereferenceable(104) %0) unnamed_addr #4 align 2 {
  %2 = alloca ptr, align 8
  store ptr %0, ptr %2, align 8, !tbaa !6
  call void (ptr, ...) @_ZN5Yosys3logEPKcz(ptr noundef @.str.4)
  call void (ptr, ...) @_ZN5Yosys3logEPKcz(ptr noundef @.str.5)
  call void (ptr, ...) @_ZN5Yosys3logEPKcz(ptr noundef @.str.4)
  call void (ptr, ...) @_ZN5Yosys3logEPKcz(ptr noundef @.str.6)
  call void (ptr, ...) @_ZN5Yosys3logEPKcz(ptr noundef @.str.7)
  call void (ptr, ...) @_ZN5Yosys3logEPKcz(ptr noundef @.str.8)
  call void (ptr, ...) @_ZN5Yosys3logEPKcz(ptr noundef @.str.9)
  call void (ptr, ...) @_ZN5Yosys3logEPKcz(ptr noundef @.str.10)
  call void (ptr, ...) @_ZN5Yosys3logEPKcz(ptr noundef @.str.4)
  call void (ptr, ...) @_ZN5Yosys3logEPKcz(ptr noundef @.str.11)
  call void (ptr, ...) @_ZN5Yosys3logEPKcz(ptr noundef @.str.12)
  call void (ptr, ...) @_ZN5Yosys3logEPKcz(ptr noundef @.str.13)
  call void (ptr, ...) @_ZN5Yosys3logEPKcz(ptr noundef @.str.4)
  call void (ptr, ...) @_ZN5Yosys3logEPKcz(ptr noundef @.str.14)
  call void (ptr, ...) @_ZN5Yosys3logEPKcz(ptr noundef @.str.15)
  call void (ptr, ...) @_ZN5Yosys3logEPKcz(ptr noundef @.str.16)
  call void (ptr, ...) @_ZN5Yosys3logEPKcz(ptr noundef @.str.4)
  call void (ptr, ...) @_ZN5Yosys3logEPKcz(ptr noundef @.str.17)
  call void (ptr, ...) @_ZN5Yosys3logEPKcz(ptr noundef @.str.18)
  call void (ptr, ...) @_ZN5Yosys3logEPKcz(ptr noundef @.str.4)
  ret void
}